; Function Attrs: mustprogress nounwind uwtable
define hidden void @_ZN8XWorkers7run_allEP5XTask(ptr noundef nonnull align 8 dereferenceable(120) %0, ptr noundef %1) local_unnamed_addr #0 align 2 {
  %3 = getelementptr inbounds i8, ptr %0, i64 32
  %4 = load i32, ptr %3, align 8
  %5 = getelementptr inbounds i8, ptr %0, i64 24
  %6 = load i32, ptr %5, align 8
  %7 = tail call noundef i32 @_ZN13WorkerThreads18set_active_workersEj(ptr noundef nonnull align 8 dereferenceable(120) %0, i32 noundef %6) #8
  %8 = load volatile ptr, ptr getelementptr inbounds (i8, ptr @_ZN16LogTagSetMappingILN6LogTag4typeE49ELS1_158ELS1_0ELS1_0ELS1_0ELS1_0EE7_tagsetE, i64 56), align 8
  %.not = icmp eq ptr %8, null
  br i1 %.not, label %12, label %9

9:                                                ; preds = %2
  %10 = tail call noundef ptr @_ZNK5XTask4nameEv(ptr noundef nonnull align 8 dereferenceable(40) %1) #8
  %11 = load i32, ptr %3, align 8
  tail call void (ptr, ...) @_ZN7LogImplILN6LogTag4typeE49ELS1_158ELS1_0ELS1_0ELS1_0ELS1_0EE5writeILN8LogLevel4typeE2EEEvPKcz(ptr noundef nonnull @.str.8, ptr noundef %10, i32 noundef %11)
  br label %12

12:                                               ; preds = %2, %9
  %13 = tail call noundef ptr @_ZN5XTask11worker_taskEv(ptr noundef nonnull align 8 dereferenceable(40) %1) #8
  tail call void @_ZN13WorkerThreads8run_taskEP10WorkerTask(ptr noundef nonnull align 8 dereferenceable(120) %0, ptr noundef %13) #8
  %14 = tail call noundef i32 @_ZN13WorkerThreads18set_active_workersEj(ptr noundef nonnull align 8 dereferenceable(120) %0, i32 noundef %4) #8
  ret void
}